target datalayout = "e-m:e-p270:32:32-p271:32:32-p272:64:64-i64:64-i128:128-f80:128-n8:16:32:64-S128"
target triple = "x86_64-pc-linux-gnu"

%"class.clang::DeclContext" = type { ptr, %union.anon, ptr, ptr }
%union.anon = type { %"class.clang::DeclContext::RecordDeclBitfields" }
%"class.clang::DeclContext::RecordDeclBitfields" = type { i64 }
%"class.clang::DeclContext::FunctionDeclBitfields" = type <{ i16, i32, [2 x i8] }>

; Function Attrs: mustprogress nounwind uwtable
define linkonce_odr hidden noundef zeroext i1 @_ZNK5clang12FunctionDecl13isPureVirtualEv(ptr noundef nonnull align 8 dereferenceable(168) %0) #0 comdat align 2 {
  %2 = alloca ptr, align 8
  store ptr %0, ptr %2, align 8
  %3 = load ptr, ptr %2, align 8
  %4 = getelementptr inbounds i8, ptr %3, i64 72
  %5 = getelementptr inbounds nuw %"class.clang::DeclContext", ptr %4, i32 0, i32 1
  %6 = getelementptr inbounds nuw %"class.clang::DeclContext::FunctionDeclBitfields", ptr %5, i32 0, i32 1
  %7 = load i32, ptr %6, align 2
  %8 = lshr i32 %7, 3
  %9 = and i32 %8, 1
  %10 = zext i32 %9 to i64
  %11 = icmp ne i64 %10, 0
  ret i1 %11
}

; Function Attrs: mustprogress nounwind uwtable
define linkonce_odr hidden noundef zeroext i1 @_ZNK5clang12FunctionDecl18isVirtualAsWrittenEv(ptr noundef nonnull align 8 dereferenceable(168) %0) #0 comdat align 2 {
  %2 = alloca ptr, align 8
  store ptr %0, ptr %2, align 8
  %3 = load ptr, ptr %2, align 8
  %4 = getelementptr inbounds i8, ptr %3, i64 72
  %5 = getelementptr inbounds nuw %"class.clang::DeclContext", ptr %4, i32 0, i32 1
  %6 = getelementptr inbounds nuw %"class.clang::DeclContext::FunctionDeclBitfields", ptr %5, i32 0, i32 1
  %7 = load i32, ptr %6, align 2
  %8 = lshr i32 %7, 2
  %9 = and i32 %8, 1
  %10 = zext i32 %9 to i64
  %11 = icmp ne i64 %10, 0
  ret i1 %11
}

; Function Attrs: mustprogress nounwind uwtable
define linkonce_odr hidden noundef zeroext i1 @_ZNK5clang13CXXMethodDecl9isVirtualEv(ptr noundef nonnull align 8 dereferenceable(168) %0) #0 comdat align 2 {
  %2 = alloca i1, align 1
  %3 = alloca ptr, align 8
  %4 = alloca ptr, align 8
  store ptr %0, ptr %3, align 8
  %5 = load ptr, ptr %3, align 8
  %6 = load ptr, ptr %5, align 8
  %7 = getelementptr inbounds ptr, ptr %6, i64 4
  %8 = load ptr, ptr %7, align 8
  %9 = call noundef ptr %8(ptr noundef nonnull align 8 dereferenceable(168) %5)
  store ptr %9, ptr %4, align 8
  %10 = load ptr, ptr %4, align 8
  %11 = call noundef zeroext i1 @_ZNK5clang12FunctionDecl18isVirtualAsWrittenEv(ptr noundef nonnull align 8 dereferenceable(168) %10)
  br i1 %11, label %15, label %12

12:                                               ; preds = %1
  %13 = load ptr, ptr %4, align 8
  %14 = call noundef zeroext i1 @_ZNK5clang12FunctionDecl13isPureVirtualEv(ptr noundef nonnull align 8 dereferenceable(168) %13)
  br i1 %14, label %15, label %16

15:                                               ; preds = %12, %1
  store i1 true, ptr %2, align 1
  br label %20

16:                                               ; preds = %12
  %17 = load ptr, ptr %4, align 8
  %18 = call noundef i32 @_ZNK5clang13CXXMethodDecl23size_overridden_methodsEv(ptr noundef nonnull align 8 dereferenceable(168) %17)
  %19 = icmp ne i32 %18, 0
  store i1 %19, ptr %2, align 1
  br label %20

20:                                               ; preds = %16, %15
  %21 = load i1, ptr %2, align 1
  ret i1 %21
}

; Function Attrs: mustprogress nounwind uwtable
define dso_local noundef zeroext i1 @_ZN5clang17VTableContextBase13hasVtableSlotEPKNS_13CXXMethodDeclE(ptr noundef %0) #0 align 2 {
  %2 = alloca ptr, align 8
  store ptr %0, ptr %2, align 8
  %3 = load ptr, ptr %2, align 8
  %4 = call noundef zeroext i1 @_ZNK5clang13CXXMethodDecl9isVirtualEv(ptr noundef nonnull align 8 dereferenceable(168) %3)
  br i1 %4, label %5, label %9

5:                                                ; preds = %1
  %6 = load ptr, ptr %2, align 8
  %7 = call noundef zeroext i1 @_ZNK5clang12FunctionDecl19isImmediateFunctionEv(ptr noundef nonnull align 8 dereferenceable(168) %6)
  %8 = xor i1 %7, true
  br label %9

9:                                                ; preds = %5, %1
  %10 = phi i1 [ false, %1 ], [ %8, %5 ]
  ret i1 %10
}