; Function Attrs: mustprogress nounwind uwtable
define dso_local noundef zeroext i1 @_ZN5clang17VTableContextBase13hasVtableSlotEPKNS_13CXXMethodDeclE(ptr noundef %0) local_unnamed_addr #0 align 2 {
  %2 = load ptr, ptr %0, align 8
  %3 = getelementptr inbounds i8, ptr %2, i64 32
  %4 = load ptr, ptr %3, align 8
  %5 = tail call noundef ptr %4(ptr noundef nonnull align 8 dereferenceable(168) %0) #26
  %6 = getelementptr inbounds i8, ptr %5, i64 82
  %7 = load i32, ptr %6, align 2
  %8 = and i32 %7, 12
  %or.cond.not.i = icmp eq i32 %8, 0
  br i1 %or.cond.not.i, label %_ZNK5clang13CXXMethodDecl9isVirtualEv.exit, label %_ZNK5clang13CXXMethodDecl9isVirtualEv.exit.thread

_ZNK5clang13CXXMethodDecl9isVirtualEv.exit:       ; preds = %1
  %9 = tail call noundef i32 @_ZNK5clang13CXXMethodDecl23size_overridden_methodsEv(ptr noundef nonnull align 8 dereferenceable(168) %5) #26
  %.not = icmp eq i32 %9, 0
  br i1 %.not, label %12, label %_ZNK5clang13CXXMethodDecl9isVirtualEv.exit.thread

_ZNK5clang13CXXMethodDecl9isVirtualEv.exit.thread: ; preds = %1, %_ZNK5clang13CXXMethodDecl9isVirtualEv.exit
  %10 = tail call noundef zeroext i1 @_ZNK5clang12FunctionDecl19isImmediateFunctionEv(ptr noundef nonnull align 8 dereferenceable(168) %0) #26
  %11 = xor i1 %10, true
  br label %12

12:                                               ; preds = %_ZNK5clang13CXXMethodDecl9isVirtualEv.exit.thread, %_ZNK5clang13CXXMethodDecl9isVirtualEv.exit
  %13 = phi i1 [ false, %_ZNK5clang13CXXMethodDecl9isVirtualEv.exit ], [ %11, %_ZNK5clang13CXXMethodDecl9isVirtualEv.exit.thread ]
  ret i1 %13
}